(lp0
(dp1
S'vehTypeCode'
p2
VX81X
p3
sS'protocol'
p4
VPR2000_0.AP
p5
sS'pin'
p6
S'iso'
p7
sS'stopDiagReq'
p8
S''
p9
sS'CANConfig'
p10
Vfalse
p11
sS'KeepAlivePeriod'
p12
g9
sS'startDiagRsp'
p13
V50
p14
sS'baudRate'
p15
V10400
p16
sS'dst'
p17
V7A
p18
sS'stopDiagRsp'
p19
g9
sS'programmable'
p20
Vtrue
p21
sS'startDiagReq'
p22
V10C0
p23
sS'commRetry'
p24
V3
p25
sS'OptimizerId'
p26
VSG0110305.XML
p27
sS'slowInit'
p28
V7A
p29
sS'rerr'
p30
S'1'
p31
sS'ecuname'
p32
V10342
p33
sS'KW1'
p34
VD0
p35
sS'idRx'
p36
g9
sS'KW2'
p37
V8F
p38
sS'replyToRequestDelay'
p39
V10
p40
sS'ModelId'
p41
VFG0110305.XML
p42
sS'src'
p43
S'F1'
p44
sS'keepAliveReq'
p45
g9
sS'fastInit'
p46
g18
sS'idTx'
p47
g9
sS'errorDelay'
p48
V300
p49
sS'stdType'
p50
VSTD_A
p51
sS'ids'
p52
(lp53
V2180
p54
aV6180
p55
aV0
p56
aV6
p57
aVFF
p58
aV19
p59
ag54
ag55
ag56
aV16
p60
aVFF
p61
aVCB
p62
ag54
ag55
ag56
aV17
p63
aVFF
p64
aVB2
p65
asS'timings'
p66
V3000/900/20/1/100/300/25/500/100/1000/
p67
sS'doc'
p68
g42
sS'idf'
p69
V1
p70
sS'pin2'
p71
V15
p72
sS'pin1'
p73
V7
p74
sa(dp75
g2
g3
sg4
VPR2000_0.AP
p76
sg6
g7
sg8
g9
sg10
g9
sg12
g9
sg13
g9
sg15
V10400
p77
sg17
V01
p78
sg19
g9
sg20
Vfalse
p79
sg22
g9
sg24
V3
p80
sg26
VSG0210396.XML
p81
sg28
V01
p82
sg30
g31
sg32
V10396
p83
sg34
VD0
p84
sg36
g9
sg37
V8F
p85
sg39
V0
p86
sg41
VFG0210396.XML
p87
sg43
g44
sg45
g9
sg46
g78
sg47
g9
sg48
V1000
p88
sg50
VSTD_A
p89
sg52
(lp90
V2180
p91
aV6180
p92
aV0
p93
aV6
p94
aVFF
p95
aV11
p96
asg66
V3000/350/20/1/100/250/25/500/100/1000/
p97
sg68
VABS_ESP81P_0000_11_A
p98
sg69
V2
p99
sg71
g72
sg73
g74
sa(dp100
g2
g3
sg4
g9
sg6
S'can'
p101
sg8
V1081
p102
sg10
Vfalse
p103
sg12
V3000
p104
sS'brp'
p105
V1
p106
sg13
V50C0
p107
sg15
g9
sg17
V51
p108
sg19
V5081
p109
sg20
Vtrue
p110
sg22
V10C0
p111
sg24
V3
p112
sg26
VSG0310262.XML
p113
sg28
g9
sg30
S'0'
p114
sg32
V10262
p115
sg34
g9
sg36
V763
p116
sg37
g9
sg39
V0
p117
sg41
VFG0310262.XML
p118
sg43
VF1
p119
sg45
V3E01
p120
sg46
g9
sg47
V743
p121
sg48
V1000
p122
sg50
VSTD_A
p123
sg52
(lp124
V2180
p125
aV6180
p126
aV0
p127
aV6
p128
aVFF
p129
aV10
p130
ag125
ag126
ag127
aV17
p131
aVFF
p132
aV03
p133
asg66
g9
sg68
VTDB_81PH1P_B201_04_A
p134
sg69
V3
p135
sg71
V14
p136
sg73
V6
p137
sa(dp138
g2
g3
sg4
VPR2000_0.AP
p139
sg6
g7
sg8
g9
sg10
g9
sg12
g9
sg13
V50
p140
sg15
V10400
p141
sg17
V26
p142
sg19
g9
sg20
Vtrue
p143
sg22
V10C0
p144
sg24
V3
p145
sg26
VSG0410308.XML
p146
sg28
V26
p147
sg30
S'N/A'
p148
sg32
V10385
p149
sg34
VD0
p150
sg36
g9
sg37
V8F
p151
sg39
V0
p152
sg41
VFG0410308.XML
p153
sg43
g44
sg45
g9
sg46
g142
sg47
g9
sg48
V1000
p154
sg50
VFAILFLAG
p155
sg52
(lp156
V2180
p157
aV6180
p158
aV0
p159
aV6
p160
aVFF
p161
aV18
p162
asg66
V3000/300/20/1/100/300/25/500/100/1000/
p163
sg68
g153
sg69
V4
p164
sg71
g72
sg73
g74
sa(dp165
g2
g3
sg4
VPR2000_0.AP
p166
sg6
g7
sg8
g9
sg10
Vtrue
p167
sg12
g9
sg13
V50
p168
sg15
V10400
p169
sg17
V2C
p170
sg19
g9
sg20
Vfalse
p171
sg22
V10C0
p172
sg24
V3
p173
sg26
VSG0510306.XML
p174
sg28
V2C
p175
sg30
g31
sg32
V10306
p176
sg34
VD0
p177
sg36
g9
sg37
V8F
p178
sg39
V5
p179
sg41
VFG0510306.XML
p180
sg43
g44
sg45
g9
sg46
g170
sg47
g9
sg48
V300
p181
sg50
VSTD_A
p182
sg52
(lp183
V2180
p184
aV6180
p185
aV0
p186
aV6
p187
aVFF
p188
aV2D
p189
asg66
V1000/500/250/1/100/300/30/500/100/1000/
p190
sg68
VABG_BX81P2_000F_2D_A
p191
sg69
V5
p192
sg71
g72
sg73
g74
sa(dp193
g2
g3
sg4
VPR2000_0.AP
p194
sg6
g7
sg8
g9
sg10
Vfalse
p195
sg12
g9
sg13
V50
p196
sg15
V10400
p197
sg17
V29
p198
sg19
g9
sg20
Vtrue
p199
sg22
V10C0
p200
sg24
V3
p201
sg26
VSG0810302.XML
p202
sg28
V29
p203
sg30
g148
sg32
V10302
p204
sg34
VD0
p205
sg36
g9
sg37
V8F
p206
sg39
V5
p207
sg41
VFG0810302.XML
p208
sg43
g44
sg45
g9
sg46
g198
sg47
g9
sg48
V300
p209
sg50
VFAILFLAG
p210
sg52
(lp211
V2180
p212
aV6180
p213
aV0
p214
aV6
p215
aVFF
p216
aV11
p217
asg66
V3000/500/20/1/100/500/25/500/10/1000/
p218
sg68
VCLI_B_X81__0000_11_A
p219
sg69
V8
p220
sg71
g72
sg73
g74
sa(dp221
g2
g3
sg4
VPR2000_0.AP
p222
sg6
g7
sg8
g9
sg10
Vfalse
p223
sg12
g9
sg13
V50
p224
sg15
V10400
p225
sg17
V0D
p226
sg19
g9
sg20
Vtrue
p227
sg22
V10B0
p228
sg24
V3
p229
sg26
VSG1310126.XML
p230
sg28
V0D
p231
sg30
S'4'
p232
sg32
V10126
p233
sg34
VD0
p234
sg36
g9
sg37
V8F
p235
sg39
V5
p236
sg41
VFG1310126.XML
p237
sg43
g44
sg45
g9
sg46
g226
sg47
g9
sg48
V300
p238
sg50
VSTD_A
p239
sg52
(lp240
V2180
p241
aV6180
p242
aV0
p243
aV6
p244
aVFF
p245
aV04
p246
asg66
V3000/300/20/1/100/500/25/500/100/1000/
p247
sg68
VFRE_BPAR81_8511_01_A
p248
sg69
V13
p249
sg71
g72
sg73
g74
sa.