(lp0
(dp1
S'vehTypeCode'
p2
S''
p3
sS'protocol'
p4
g3
sS'pin'
p5
S'can'
p6
sS'stopDiagReq'
p7
V1081
p8
sS'CANConfig'
p9
Vfalse
p10
sS'KeepAlivePeriod'
p11
V3000
p12
sS'brp'
p13
V0
p14
sS'startDiagRsp'
p15
V50C0
p16
sS'baudRate'
p17
g3
sS'dst'
p18
V7A
p19
sS'rerr'
p20
S'0'
p21
sS'programmable'
p22
Vtrue
p23
sS'startDiagReq'
p24
V10C0
p25
sS'commRetry'
p26
V3
p27
sS'OptimizerId'
p28
VSG0110706.XML
p29
sS'slowInit'
p30
g3
sS'stopDiagRsp'
p31
V5081
p32
sS'ecuname'
p33
V10742
p34
sS'KW1'
p35
g3
sS'idRx'
p36
V7E8
p37
sS'KW2'
p38
g3
sS'replyToRequestDelay'
p39
V0
p40
sS'ModelId'
p41
VFG0110706.XML
p42
sS'src'
p43
VF1
p44
sS'keepAliveReq'
p45
V3E01
p46
sS'fastInit'
p47
g3
sS'idTx'
p48
V7E0
p49
sS'errorDelay'
p50
V1000
p51
sS'stdType'
p52
VSTD_B
p53
sS'ids'
p54
(lp55
V2180
p56
aV6180
p57
aV0
p58
aV6
p59
aVFF
p60
aV45
p61
ag56
ag57
ag58
aV16
p62
aVFF
p63
aV83
p64
asS'timings'
p65
g3
sS'doc'
p66
VK9K832_K9K836_X95_SID305_Vdiag45_RM6_Soft83
p67
sS'idf'
p68
V1
p69
sS'pin2'
p70
V14
p71
sS'pin1'
p72
V6
p73
sa(dp74
g2
g3
sg4
g3
sg5
g6
sg7
V1081
p75
sg9
Vfalse
p76
sg11
V3000
p77
sg13
g14
sg15
V50
p78
sg17
g3
sg18
V01
p79
sg20
g21
sg22
Vtrue
p80
sg24
V10C0
p81
sg26
V3
p82
sg28
VSG0210721.XML
p83
sg30
g3
sg31
V5081
p84
sg33
V10721
p85
sg35
g3
sg36
V760
p86
sg38
g3
sg39
V0
p87
sg41
VFG0210721.XML
p88
sg43
VF1
p89
sg45
V3E
p90
sg47
g3
sg48
V740
p91
sg50
V1000
p92
sg52
VSTD_B
p93
sg54
(lp94
V2180
p95
aV6180
p96
aV0
p97
aV6
p98
aVFF
p99
aV04
p100
asg65
g3
sg66
VABS_ESP_X95_0000_04_A
p101
sg68
V2
p102
sg70
g71
sg72
g73
sa(dp103
g2
g3
sg4
g3
sg5
g6
sg7
V1081
p104
sg9
Vfalse
p105
sg11
V3000
p106
sg13
g14
sg15
V50C0
p107
sg17
g3
sg18
V51
p108
sg20
g21
sg22
Vtrue
p109
sg24
V10C0
p110
sg26
V3
p111
sg28
VSG0310775.XML
p112
sg30
g3
sg31
V5081
p113
sg33
V10775
p114
sg35
g3
sg36
V763
p115
sg38
g3
sg39
V0
p116
sg41
VFG0310775.XML
p117
sg43
VF1
p118
sg45
V3E01
p119
sg47
g3
sg48
V743
p120
sg50
V1000
p121
sg52
VSTD_B
p122
sg54
(lp123
V2180
p124
aV6180
p125
aV0
p126
aV6
p127
aVFF
p128
aV24
p129
asg65
g3
sg66
VTDB_J95_0000_24_B
p130
sg68
V3
p131
sg70
g71
sg72
g73
sa(dp132
g2
g3
sg4
g3
sg5
g6
sg7
V1081
p133
sg9
Vtrue
p134
sg11
V3000
p135
sg13
g14
sg15
V50C0
p136
sg17
g3
sg18
V26
p137
sg20
g21
sg22
Vtrue
p138
sg24
V10C0
p139
sg26
V3
p140
sg28
VSG0410666.XML
p141
sg30
g3
sg31
V5081
p142
sg33
V10666
p143
sg35
g3
sg36
V765
p144
sg38
g3
sg39
V0
p145
sg41
VFG0410666.XML
p146
sg43
VF1
p147
sg45
V3E01
p148
sg47
g3
sg48
V745
p149
sg50
V1000
p150
sg52
VSTD_B
p151
sg54
(lp152
V2180
p153
aV6180
p154
aV0
p155
aV6
p156
aVFF
p157
aV04
p158
asg65
g3
sg66
VUCH_BCM_X95_0000_04_A
p159
sg68
V4
p160
sg70
g71
sg72
g73
sa(dp161
g2
g3
sg4
g3
sg5
g6
sg7
V1081
p162
sg9
Vtrue
p163
sg11
V3000
p164
sg13
g14
sg15
V50C0
p165
sg17
g3
sg18
V2C
p166
sg20
g21
sg22
Vfalse
p167
sg24
V10C0
p168
sg26
V3
p169
sg28
VSG0510700.XML
p170
sg30
g3
sg31
V5081
p171
sg33
V10700
p172
sg35
g3
sg36
V772
p173
sg38
g3
sg39
V0
p174
sg41
VFG0510700.XML
p175
sg43
VF1
p176
sg45
V3E
p177
sg47
g3
sg48
V752
p178
sg50
V1000
p179
sg52
VSTD_B
p180
sg54
(lp181
V2180
p182
aV6180
p183
aV0
p184
aV6
p185
aVFF
p186
aV04
p187
asg65
g3
sg66
VABG_MRSZ_X95_0000_04_A
p188
sg68
V5
p189
sg70
g71
sg72
g73
sa(dp190
g2
g3
sg4
g3
sg5
g6
sg7
V1081
p191
sg9
Vfalse
p192
sg11
V3000
p193
sg13
g14
sg15
V50C0
p194
sg17
g3
sg18
V29
p195
sg20
g21
sg22
Vtrue
p196
sg24
V10C0
p197
sg26
V3
p198
sg28
VSG0810693.XML
p199
sg30
g3
sg31
V5081
p200
sg33
V10693
p201
sg35
g3
sg36
V764
p202
sg38
g3
sg39
V0
p203
sg41
VFG0810693.XML
p204
sg43
VF1
p205
sg45
V3E01
p206
sg47
g3
sg48
V744
p207
sg50
V1000
p208
sg52
VSTD_B
p209
sg54
(lp210
V2180
p211
aV6180
p212
aV0
p213
aV6
p214
aVFF
p215
aV04
p216
asg65
g3
sg66
VX95_CAREG_V2_04_B
p217
sg68
V8
p218
sg70
g71
sg72
g73
sa(dp219
g2
g3
sg4
g3
sg5
g6
sg7
V1081
p220
sg9
Vfalse
p221
sg11
V3000
p222
sg13
g14
sg15
V50C0
p223
sg17
g3
sg18
V0D
p224
sg20
S'1'
p225
sg22
Vfalse
p226
sg24
V10C0
p227
sg26
V3
p228
sg28
VSG1310752.XML
p229
sg30
g3
sg31
V5081
p230
sg33
V10752
p231
sg35
g3
sg36
V775
p232
sg38
g3
sg39
V0
p233
sg41
VFG1310752.XML
p234
sg43
VF1
p235
sg45
V3E01
p236
sg47
g3
sg48
V755
p237
sg50
V1000
p238
sg52
VSTD_B
p239
sg54
(lp240
V2180
p241
aV6180
p242
aV0
p243
aV6
p244
aVFF
p245
aV04
p246
asg65
g3
sg66
VFPA_X95_0000_04_B
p247
sg68
V13
p248
sg70
g71
sg72
g73
sa(dp249
g2
g3
sg4
g3
sg5
g6
sg7
V1081
p250
sg9
Vfalse
p251
sg11
V3000
p252
sg13
g14
sg15
V50C0
p253
sg17
g3
sg18
V04
p254
sg20
g21
sg22
Vfalse
p255
sg24
V10C0
p256
sg26
V3
p257
sg28
VSG1810718.XML
p258
sg30
g3
sg31
V5081
p259
sg33
V10718
p260
sg35
g3
sg36
V762
p261
sg38
g3
sg39
V0
p262
sg41
VFG1810718.XML
p263
sg43
VF1
p264
sg45
V3E01
p265
sg47
g3
sg48
V742
p266
sg50
V1000
p267
sg52
VSTD_B
p268
sg54
(lp269
V2180
p270
aV6180
p271
aV0
p272
aV6
p273
aVFF
p274
aV04
p275
asg65
g3
sg66
VDAE_X95_V1_0000_04_B
p276
sg68
V18
p277
sg70
g71
sg72
g73
sa(dp278
g2
g3
sg4
g3
sg5
g6
sg7
V1081
p279
sg9
Vfalse
p280
sg11
V3000
p281
sg13
g14
sg15
V50
p282
sg17
g3
sg18
V27
p283
sg20
g21
sg22
Vfalse
p284
sg24
V10C0
p285
sg26
V3
p286
sg28
VSG2010788.XML
p287
sg30
g3
sg31
V5081
p288
sg33
V10788
p289
sg35
g3
sg36
V76D
p290
sg38
g3
sg39
V0
p291
sg41
VFG2010788.XML
p292
sg43
VF1
p293
sg45
V3E01
p294
sg47
g3
sg48
V74D
p295
sg50
V1000
p296
sg52
VSTD_B
p297
sg54
(lp298
V2180
p299
aV6180
p300
aV0
p301
aV6
p302
aVFF
p303
aV05
p304
asg65
g3
sg66
VUPC_JR95_L38_00_05_A
p305
sg68
V20
p306
sg70
g71
sg72
g73
sa(dp307
g2
g3
sg4
g3
sg5
g6
sg7
V1081
p308
sg9
Vfalse
p309
sg11
V3000
p310
sg13
g14
sg15
V50C0
p311
sg17
g3
sg18
V0E
p312
sg20
g21
sg22
Vfalse
p313
sg24
V10C0
p314
sg26
V3
p315
sg28
VSG4110456.XML
p316
sg30
g3
sg31
V5081
p317
sg33
V10786
p318
sg35
g3
sg36
V76E
p319
sg38
g3
sg39
V0
p320
sg41
VFG4110456.XML
p321
sg43
VF1
p322
sg45
V3E01
p323
sg47
g3
sg48
V74E
p324
sg50
V1000
p325
sg52
VSTD_B
p326
sg54
(lp327
V2180
p328
aV6180
p329
aV0
p330
aV6
p331
aVFF
p332
aV24
p333
asg65
g3
sg66
VAAP_JR95_0000_24_A
p334
sg68
V41
p335
sg70
g71
sg72
g73
sa(dp336
g2
g3
sg4
g3
sg5
g6
sg7
V1081
p337
sg9
Vfalse
p338
sg11
V3000
p339
sg13
g14
sg15
V50C0
p340
sg17
g3
sg18
VA5
p341
sg20
g21
sg22
Vfalse
p342
sg24
V10C0
p343
sg26
V3
p344
sg28
VSG6010707.XML
p345
sg30
g3
sg31
V5081
p346
sg33
V10707
p347
sg35
g3
sg36
V725
p348
sg38
g3
sg39
V0
p349
sg41
VFG6010707.XML
p350
sg43
VF1
p351
sg45
V3E01
p352
sg47
g3
sg48
V705
p353
sg50
V1000
p354
sg52
VSTD_B
p355
sg54
(lp356
V2180
p357
aV6180
p358
aV0
p359
aV6
p360
aVFF
p361
aV04
p362
asg65
g3
sg66
VDCM X95 V3 04 B
p363
sg68
V60
p364
sg70
g71
sg72
g73
sa.