(dp0
S'lang'
p1
S'RU'
p2
sS'demo'
p3
I01
sS'cfc'
p4
I00
sS'port'
p5
S''
p6
sS'useDump'
p7
I00
sS'si'
p8
I00
sS'dev_address'
p9
g6
sS'logName'
p10
Vlog.txt
p11
sS'fontSize'
p12
I20
sS'csv'
p13
I00
sS'screen_orient'
p14
I00
s.