(dp0
S'lang'
p1
S'RU'
p2
sS'opt_ecu'
p3
S'10480'
p4
sS'demo'
p5
I00
sS'cfc'
p6
I00
sS'port'
p7
VCOM4
p8
sS'useDump'
p9
I00
sS'si'
p10
I00
sS'dev_address'
p11
g8
sS'logName'
p12
Vlog.txt
p13
sS'savedEcus'
p14
S'Select'
p15
sS'fontSize'
p16
I13
sS'csv'
p17
I00
sS'screen_orient'
p18
I00
s.